(dp0
Vgeometry
p1
(dp2
Vlocation
p3
(dp4
Vlat
p5
F44.4560352
sVlng
p6
F-104.4844615
ssVlocation_type
p7
VAPPROXIMATE
p8
sVviewport
p9
(dp10
Vnortheast
p11
(dp12
Vlat
p13
F44.4726848
sVlng
p14
F-104.482443
ssVsouthwest
p15
(dp16
Vlat
p17
F44.4398715
sVlng
p18
F-104.4870365
sssVbounds
p19
(dp20
Vnortheast
p21
(dp22
Vlat
p23
F44.4726848
sVlng
p24
F-104.482443
ssVsouthwest
p25
(dp26
Vlat
p27
F44.4398715
sVlng
p28
F-104.4870365
ssssVaddress_components
p29
(lp30
(dp31
Vlong_name
p32
VBear Lodge Road
p33
sVshort_name
p34
VBear Lodge Rd
p35
sVtypes
p36
(lp37
Vroute
p38
asa(dp39
Vlong_name
p40
VSundance
p41
sVshort_name
p42
VSundance
p43
sVtypes
p44
(lp45
Vlocality
p46
aVpolitical
p47
asa(dp48
Vlong_name
p49
VCrook County
p50
sVshort_name
p51
VCrook County
p52
sVtypes
p53
(lp54
Vadministrative_area_level_2
p55
aVpolitical
p56
asa(dp57
Vlong_name
p58
VWyoming
p59
sVshort_name
p60
VWY
p61
sVtypes
p62
(lp63
Vadministrative_area_level_1
p64
aVpolitical
p65
asa(dp66
Vlong_name
p67
VUnited States
p68
sVshort_name
p69
VUS
p70
sVtypes
p71
(lp72
Vcountry
p73
aVpolitical
p74
asa(dp75
Vlong_name
p76
V82729
p77
sVshort_name
p78
V82729
p79
sVtypes
p80
(lp81
Vpostal_code
p82
asasVformatted_address
p83
VBear Lodge Road, Sundance, WY 82729, USA
p84
sVtypes
p85
(lp86
Vroute
p87
as.